; Function Attrs: mustprogress nofree norecurse nosync nounwind willreturn memory(readwrite, inaccessiblemem: none) uwtable
define dso_local i64 @window_percent_rank_support(ptr noundef readonly captures(none) %0) local_unnamed_addr #3 {
  %2 = getelementptr inbounds nuw i8, ptr %0, i64 32
  %3 = load i64, ptr %2, align 8
  %4 = inttoptr i64 %3 to ptr
  %5 = load i32, ptr %4, align 4
  switch i32 %5, label %8 [
    i32 461, label %.sink.split
    i32 462, label %6
  ]

6:                                                ; preds = %1
  br label %.sink.split

.sink.split:                                      ; preds = %1, %6
  %.sink = phi i32 [ 1061, %6 ], [ 1, %1 ]
  %7 = getelementptr inbounds nuw i8, ptr %4, i64 24
  store i32 %.sink, ptr %7, align 8
  br label %8

8:                                                ; preds = %.sink.split, %1
  %.0 = phi i64 [ 0, %1 ], [ %3, %.sink.split ]
  ret i64 %.0
}